
GccApplication1.elf:     file format elf32-avr

Sections:
Idx Name          Size      VMA       LMA       File off  Algn
  0 .text         00000be0  00000000  00000000  00000054  2**1
                  CONTENTS, ALLOC, LOAD, READONLY, CODE
  1 .data         00000000  00800060  00800060  00000c34  2**0
                  CONTENTS, ALLOC, LOAD, DATA
  2 .comment      00000060  00000000  00000000  00000c34  2**0
                  CONTENTS, READONLY
  3 .note.gnu.avr.deviceinfo 0000003c  00000000  00000000  00000c94  2**2
                  CONTENTS, READONLY
  4 .debug_aranges 000000c0  00000000  00000000  00000cd0  2**0
                  CONTENTS, READONLY, DEBUGGING
  5 .debug_info   00002638  00000000  00000000  00000d90  2**0
                  CONTENTS, READONLY, DEBUGGING
  6 .debug_abbrev 000007d3  00000000  00000000  000033c8  2**0
                  CONTENTS, READONLY, DEBUGGING
  7 .debug_line   00000e6e  00000000  00000000  00003b9b  2**0
                  CONTENTS, READONLY, DEBUGGING
  8 .debug_frame  000001cc  00000000  00000000  00004a0c  2**2
                  CONTENTS, READONLY, DEBUGGING
  9 .debug_str    0000049a  00000000  00000000  00004bd8  2**0
                  CONTENTS, READONLY, DEBUGGING
 10 .debug_loc    00001803  00000000  00000000  00005072  2**0
                  CONTENTS, READONLY, DEBUGGING
 11 .debug_ranges 000000f0  00000000  00000000  00006875  2**0
                  CONTENTS, READONLY, DEBUGGING

Disassembly of section .text:

00000000 <__vectors>:
   0:	0c 94 52 00 	jmp	0xa4	; 0xa4 <__ctors_end>
   4:	0c 94 5c 00 	jmp	0xb8	; 0xb8 <__bad_interrupt>
   8:	0c 94 5c 00 	jmp	0xb8	; 0xb8 <__bad_interrupt>
   c:	0c 94 5c 00 	jmp	0xb8	; 0xb8 <__bad_interrupt>
  10:	0c 94 5c 00 	jmp	0xb8	; 0xb8 <__bad_interrupt>
  14:	0c 94 5c 00 	jmp	0xb8	; 0xb8 <__bad_interrupt>
  18:	0c 94 5c 00 	jmp	0xb8	; 0xb8 <__bad_interrupt>
  1c:	0c 94 5c 00 	jmp	0xb8	; 0xb8 <__bad_interrupt>
  20:	0c 94 5c 00 	jmp	0xb8	; 0xb8 <__bad_interrupt>
  24:	0c 94 5c 00 	jmp	0xb8	; 0xb8 <__bad_interrupt>
  28:	0c 94 5c 00 	jmp	0xb8	; 0xb8 <__bad_interrupt>
  2c:	0c 94 5c 00 	jmp	0xb8	; 0xb8 <__bad_interrupt>
  30:	0c 94 5c 00 	jmp	0xb8	; 0xb8 <__bad_interrupt>
  34:	0c 94 5c 00 	jmp	0xb8	; 0xb8 <__bad_interrupt>
  38:	0c 94 5c 00 	jmp	0xb8	; 0xb8 <__bad_interrupt>
  3c:	0c 94 5c 00 	jmp	0xb8	; 0xb8 <__bad_interrupt>
  40:	0c 94 5c 00 	jmp	0xb8	; 0xb8 <__bad_interrupt>
  44:	0c 94 5c 00 	jmp	0xb8	; 0xb8 <__bad_interrupt>
  48:	0c 94 5c 00 	jmp	0xb8	; 0xb8 <__bad_interrupt>
  4c:	0c 94 5c 00 	jmp	0xb8	; 0xb8 <__bad_interrupt>
  50:	0c 94 5c 00 	jmp	0xb8	; 0xb8 <__bad_interrupt>
  54:	b3 00       	.word	0x00b3	; ????
  56:	c4 00       	.word	0x00c4	; ????
  58:	d5 00       	.word	0x00d5	; ????
  5a:	e6 00       	.word	0x00e6	; ????
  5c:	f7 00       	.word	0x00f7	; ????
  5e:	08 01       	movw	r0, r16
  60:	19 01       	movw	r2, r18
  62:	2a 01       	movw	r4, r20
  64:	3b 01       	movw	r6, r22
  66:	4c 01       	movw	r8, r24
  68:	74 01       	movw	r14, r8
  6a:	85 01       	movw	r16, r10
  6c:	96 01       	movw	r18, r12
  6e:	a7 01       	movw	r20, r14
  70:	b8 01       	movw	r22, r16
  72:	c9 01       	movw	r24, r18
  74:	da 01       	movw	r26, r20
  76:	eb 01       	movw	r28, r22
  78:	fc 01       	movw	r30, r24
  7a:	0d 02       	muls	r16, r29
  7c:	55 02       	muls	r21, r21
  7e:	66 02       	muls	r22, r22
  80:	77 02       	muls	r23, r23
  82:	88 02       	muls	r24, r24
  84:	99 02       	muls	r25, r25
  86:	aa 02       	muls	r26, r26
  88:	bb 02       	muls	r27, r27
  8a:	cc 02       	muls	r28, r28
  8c:	dd 02       	muls	r29, r29
  8e:	ee 02       	muls	r30, r30
  90:	15 03       	mulsu	r17, r21
  92:	26 03       	mulsu	r18, r22
  94:	37 03       	mulsu	r19, r23
  96:	48 03       	fmul	r20, r16
  98:	59 03       	fmul	r21, r17
  9a:	6a 03       	fmul	r22, r18
  9c:	7b 03       	fmul	r23, r19
  9e:	8c 03       	fmulsu	r16, r20
  a0:	9d 03       	fmulsu	r17, r21
  a2:	ae 03       	fmulsu	r18, r22

000000a4 <__ctors_end>:
  a4:	11 24       	eor	r1, r1
  a6:	1f be       	out	0x3f, r1	; 63
  a8:	cf e5       	ldi	r28, 0x5F	; 95
  aa:	d8 e0       	ldi	r29, 0x08	; 8
  ac:	de bf       	out	0x3e, r29	; 62
  ae:	cd bf       	out	0x3d, r28	; 61
  b0:	0e 94 5e 00 	call	0xbc	; 0xbc <main>
  b4:	0c 94 ee 05 	jmp	0xbdc	; 0xbdc <_exit>

000000b8 <__bad_interrupt>:
  b8:	0c 94 00 00 	jmp	0	; 0x0 <__vectors>

000000bc <main>:
#define  F_CPU 16000000UL
#include "util/delay.h"

int main(void)
{
	S_SEG_INIT();
  bc:	0e 94 69 00 	call	0xd2	; 0xd2 <S_SEG_INIT>
    S_SEG_DISPLAY(12);
  c0:	8c e0       	ldi	r24, 0x0C	; 12
  c2:	0e 94 86 00 	call	0x10c	; 0x10c <S_SEG_DISPLAY>
	S_SEG_TIMER(12);
  c6:	8c e0       	ldi	r24, 0x0C	; 12
  c8:	0e 94 34 02 	call	0x468	; 0x468 <S_SEG_TIMER>
}
  cc:	80 e0       	ldi	r24, 0x00	; 0
  ce:	90 e0       	ldi	r25, 0x00	; 0
  d0:	08 95       	ret

000000d2 <S_SEG_INIT>:
			}
			_delay_ms(10);
			PIN_WRITE(S_SEG_EN_2_PIN,LOW);
		}
	}
}
  d2:	61 e0       	ldi	r22, 0x01	; 1
  d4:	8b e0       	ldi	r24, 0x0B	; 11
  d6:	0e 94 fb 03 	call	0x7f6	; 0x7f6 <PIN_MODE>
  da:	61 e0       	ldi	r22, 0x01	; 1
  dc:	8c e0       	ldi	r24, 0x0C	; 12
  de:	0e 94 fb 03 	call	0x7f6	; 0x7f6 <PIN_MODE>
  e2:	61 e0       	ldi	r22, 0x01	; 1
  e4:	8d e0       	ldi	r24, 0x0D	; 13
  e6:	0e 94 fb 03 	call	0x7f6	; 0x7f6 <PIN_MODE>
  ea:	61 e0       	ldi	r22, 0x01	; 1
  ec:	8c e2       	ldi	r24, 0x2C	; 44
  ee:	0e 94 fb 03 	call	0x7f6	; 0x7f6 <PIN_MODE>
  f2:	61 e0       	ldi	r22, 0x01	; 1
  f4:	8d e2       	ldi	r24, 0x2D	; 45
  f6:	0e 94 fb 03 	call	0x7f6	; 0x7f6 <PIN_MODE>
  fa:	61 e0       	ldi	r22, 0x01	; 1
  fc:	8e e2       	ldi	r24, 0x2E	; 46
  fe:	0e 94 fb 03 	call	0x7f6	; 0x7f6 <PIN_MODE>
 102:	61 e0       	ldi	r22, 0x01	; 1
 104:	8f e2       	ldi	r24, 0x2F	; 47
 106:	0e 94 fb 03 	call	0x7f6	; 0x7f6 <PIN_MODE>
 10a:	08 95       	ret

0000010c <S_SEG_DISPLAY>:
 10c:	8f 92       	push	r8
 10e:	9f 92       	push	r9
 110:	af 92       	push	r10
 112:	bf 92       	push	r11
 114:	cf 92       	push	r12
 116:	df 92       	push	r13
 118:	ef 92       	push	r14
 11a:	ff 92       	push	r15
 11c:	cf 93       	push	r28
 11e:	9d ec       	ldi	r25, 0xCD	; 205
 120:	89 9f       	mul	r24, r25
 122:	c1 2c       	mov	r12, r1
 124:	11 24       	eor	r1, r1
 126:	c6 94       	lsr	r12
 128:	c6 94       	lsr	r12
 12a:	c6 94       	lsr	r12
 12c:	2c 2d       	mov	r18, r12
 12e:	22 0f       	add	r18, r18
 130:	92 2f       	mov	r25, r18
 132:	99 0f       	add	r25, r25
 134:	99 0f       	add	r25, r25
 136:	92 0f       	add	r25, r18
 138:	88 2e       	mov	r8, r24
 13a:	89 1a       	sub	r8, r25
 13c:	c4 e6       	ldi	r28, 0x64	; 100
 13e:	d1 2c       	mov	r13, r1
 140:	91 2c       	mov	r9, r1
 142:	61 e0       	ldi	r22, 0x01	; 1
 144:	8c e0       	ldi	r24, 0x0C	; 12
 146:	0e 94 ea 04 	call	0x9d4	; 0x9d4 <PIN_WRITE>
 14a:	60 e0       	ldi	r22, 0x00	; 0
 14c:	8b e0       	ldi	r24, 0x0B	; 11
 14e:	0e 94 ea 04 	call	0x9d4	; 0x9d4 <PIN_WRITE>
 152:	8a e0       	ldi	r24, 0x0A	; 10
 154:	c8 16       	cp	r12, r24
 156:	d1 04       	cpc	r13, r1
 158:	08 f0       	brcs	.+2      	; 0x15c <S_SEG_DISPLAY+0x50>
 15a:	ae c0       	rjmp	.+348    	; 0x2b8 <S_SEG_DISPLAY+0x1ac>
 15c:	f6 01       	movw	r30, r12
 15e:	e6 5d       	subi	r30, 0xD6	; 214
 160:	ff 4f       	sbci	r31, 0xFF	; 255
 162:	0c 94 d9 05 	jmp	0xbb2	; 0xbb2 <__tablejump2__>
 166:	60 e0       	ldi	r22, 0x00	; 0
 168:	8c e2       	ldi	r24, 0x2C	; 44
 16a:	0e 94 ea 04 	call	0x9d4	; 0x9d4 <PIN_WRITE>
 16e:	60 e0       	ldi	r22, 0x00	; 0
 170:	8d e2       	ldi	r24, 0x2D	; 45
 172:	0e 94 ea 04 	call	0x9d4	; 0x9d4 <PIN_WRITE>
 176:	60 e0       	ldi	r22, 0x00	; 0
 178:	8e e2       	ldi	r24, 0x2E	; 46
 17a:	0e 94 ea 04 	call	0x9d4	; 0x9d4 <PIN_WRITE>
 17e:	60 e0       	ldi	r22, 0x00	; 0
 180:	8f e2       	ldi	r24, 0x2F	; 47
 182:	0e 94 ea 04 	call	0x9d4	; 0x9d4 <PIN_WRITE>
 186:	98 c0       	rjmp	.+304    	; 0x2b8 <S_SEG_DISPLAY+0x1ac>
 188:	61 e0       	ldi	r22, 0x01	; 1
 18a:	8c e2       	ldi	r24, 0x2C	; 44
 18c:	0e 94 ea 04 	call	0x9d4	; 0x9d4 <PIN_WRITE>
 190:	60 e0       	ldi	r22, 0x00	; 0
 192:	8d e2       	ldi	r24, 0x2D	; 45
 194:	0e 94 ea 04 	call	0x9d4	; 0x9d4 <PIN_WRITE>
 198:	60 e0       	ldi	r22, 0x00	; 0
 19a:	8e e2       	ldi	r24, 0x2E	; 46
 19c:	0e 94 ea 04 	call	0x9d4	; 0x9d4 <PIN_WRITE>
 1a0:	60 e0       	ldi	r22, 0x00	; 0
 1a2:	8f e2       	ldi	r24, 0x2F	; 47
 1a4:	0e 94 ea 04 	call	0x9d4	; 0x9d4 <PIN_WRITE>
 1a8:	87 c0       	rjmp	.+270    	; 0x2b8 <S_SEG_DISPLAY+0x1ac>
 1aa:	60 e0       	ldi	r22, 0x00	; 0
 1ac:	8c e2       	ldi	r24, 0x2C	; 44
 1ae:	0e 94 ea 04 	call	0x9d4	; 0x9d4 <PIN_WRITE>
 1b2:	61 e0       	ldi	r22, 0x01	; 1
 1b4:	8d e2       	ldi	r24, 0x2D	; 45
 1b6:	0e 94 ea 04 	call	0x9d4	; 0x9d4 <PIN_WRITE>
 1ba:	60 e0       	ldi	r22, 0x00	; 0
 1bc:	8e e2       	ldi	r24, 0x2E	; 46
 1be:	0e 94 ea 04 	call	0x9d4	; 0x9d4 <PIN_WRITE>
 1c2:	60 e0       	ldi	r22, 0x00	; 0
 1c4:	8f e2       	ldi	r24, 0x2F	; 47
 1c6:	0e 94 ea 04 	call	0x9d4	; 0x9d4 <PIN_WRITE>
 1ca:	76 c0       	rjmp	.+236    	; 0x2b8 <S_SEG_DISPLAY+0x1ac>
 1cc:	61 e0       	ldi	r22, 0x01	; 1
 1ce:	8c e2       	ldi	r24, 0x2C	; 44
 1d0:	0e 94 ea 04 	call	0x9d4	; 0x9d4 <PIN_WRITE>
 1d4:	61 e0       	ldi	r22, 0x01	; 1
 1d6:	8d e2       	ldi	r24, 0x2D	; 45
 1d8:	0e 94 ea 04 	call	0x9d4	; 0x9d4 <PIN_WRITE>
 1dc:	60 e0       	ldi	r22, 0x00	; 0
 1de:	8e e2       	ldi	r24, 0x2E	; 46
 1e0:	0e 94 ea 04 	call	0x9d4	; 0x9d4 <PIN_WRITE>
 1e4:	60 e0       	ldi	r22, 0x00	; 0
 1e6:	8f e2       	ldi	r24, 0x2F	; 47
 1e8:	0e 94 ea 04 	call	0x9d4	; 0x9d4 <PIN_WRITE>
 1ec:	65 c0       	rjmp	.+202    	; 0x2b8 <S_SEG_DISPLAY+0x1ac>
 1ee:	60 e0       	ldi	r22, 0x00	; 0
 1f0:	8c e2       	ldi	r24, 0x2C	; 44
 1f2:	0e 94 ea 04 	call	0x9d4	; 0x9d4 <PIN_WRITE>
 1f6:	60 e0       	ldi	r22, 0x00	; 0
 1f8:	8d e2       	ldi	r24, 0x2D	; 45
 1fa:	0e 94 ea 04 	call	0x9d4	; 0x9d4 <PIN_WRITE>
 1fe:	61 e0       	ldi	r22, 0x01	; 1
 200:	8e e2       	ldi	r24, 0x2E	; 46
 202:	0e 94 ea 04 	call	0x9d4	; 0x9d4 <PIN_WRITE>
 206:	60 e0       	ldi	r22, 0x00	; 0
 208:	8f e2       	ldi	r24, 0x2F	; 47
 20a:	0e 94 ea 04 	call	0x9d4	; 0x9d4 <PIN_WRITE>
 20e:	54 c0       	rjmp	.+168    	; 0x2b8 <S_SEG_DISPLAY+0x1ac>
 210:	61 e0       	ldi	r22, 0x01	; 1
 212:	8c e2       	ldi	r24, 0x2C	; 44
 214:	0e 94 ea 04 	call	0x9d4	; 0x9d4 <PIN_WRITE>
 218:	60 e0       	ldi	r22, 0x00	; 0
 21a:	8d e2       	ldi	r24, 0x2D	; 45
 21c:	0e 94 ea 04 	call	0x9d4	; 0x9d4 <PIN_WRITE>
 220:	61 e0       	ldi	r22, 0x01	; 1
 222:	8e e2       	ldi	r24, 0x2E	; 46
 224:	0e 94 ea 04 	call	0x9d4	; 0x9d4 <PIN_WRITE>
 228:	60 e0       	ldi	r22, 0x00	; 0
 22a:	8f e2       	ldi	r24, 0x2F	; 47
 22c:	0e 94 ea 04 	call	0x9d4	; 0x9d4 <PIN_WRITE>
 230:	43 c0       	rjmp	.+134    	; 0x2b8 <S_SEG_DISPLAY+0x1ac>
 232:	60 e0       	ldi	r22, 0x00	; 0
 234:	8c e2       	ldi	r24, 0x2C	; 44
 236:	0e 94 ea 04 	call	0x9d4	; 0x9d4 <PIN_WRITE>
 23a:	61 e0       	ldi	r22, 0x01	; 1
 23c:	8d e2       	ldi	r24, 0x2D	; 45
 23e:	0e 94 ea 04 	call	0x9d4	; 0x9d4 <PIN_WRITE>
 242:	61 e0       	ldi	r22, 0x01	; 1
 244:	8e e2       	ldi	r24, 0x2E	; 46
 246:	0e 94 ea 04 	call	0x9d4	; 0x9d4 <PIN_WRITE>
 24a:	60 e0       	ldi	r22, 0x00	; 0
 24c:	8f e2       	ldi	r24, 0x2F	; 47
 24e:	0e 94 ea 04 	call	0x9d4	; 0x9d4 <PIN_WRITE>
 252:	32 c0       	rjmp	.+100    	; 0x2b8 <S_SEG_DISPLAY+0x1ac>
 254:	61 e0       	ldi	r22, 0x01	; 1
 256:	8c e2       	ldi	r24, 0x2C	; 44
 258:	0e 94 ea 04 	call	0x9d4	; 0x9d4 <PIN_WRITE>
 25c:	61 e0       	ldi	r22, 0x01	; 1
 25e:	8d e2       	ldi	r24, 0x2D	; 45
 260:	0e 94 ea 04 	call	0x9d4	; 0x9d4 <PIN_WRITE>
 264:	61 e0       	ldi	r22, 0x01	; 1
 266:	8e e2       	ldi	r24, 0x2E	; 46
 268:	0e 94 ea 04 	call	0x9d4	; 0x9d4 <PIN_WRITE>
 26c:	60 e0       	ldi	r22, 0x00	; 0
 26e:	8f e2       	ldi	r24, 0x2F	; 47
 270:	0e 94 ea 04 	call	0x9d4	; 0x9d4 <PIN_WRITE>
 274:	21 c0       	rjmp	.+66     	; 0x2b8 <S_SEG_DISPLAY+0x1ac>
 276:	60 e0       	ldi	r22, 0x00	; 0
 278:	8c e2       	ldi	r24, 0x2C	; 44
 27a:	0e 94 ea 04 	call	0x9d4	; 0x9d4 <PIN_WRITE>
 27e:	60 e0       	ldi	r22, 0x00	; 0
 280:	8d e2       	ldi	r24, 0x2D	; 45
 282:	0e 94 ea 04 	call	0x9d4	; 0x9d4 <PIN_WRITE>
 286:	60 e0       	ldi	r22, 0x00	; 0
 288:	8e e2       	ldi	r24, 0x2E	; 46
 28a:	0e 94 ea 04 	call	0x9d4	; 0x9d4 <PIN_WRITE>
 28e:	61 e0       	ldi	r22, 0x01	; 1
 290:	8f e2       	ldi	r24, 0x2F	; 47
 292:	0e 94 ea 04 	call	0x9d4	; 0x9d4 <PIN_WRITE>
 296:	10 c0       	rjmp	.+32     	; 0x2b8 <S_SEG_DISPLAY+0x1ac>
 298:	61 e0       	ldi	r22, 0x01	; 1
 29a:	8c e2       	ldi	r24, 0x2C	; 44
 29c:	0e 94 ea 04 	call	0x9d4	; 0x9d4 <PIN_WRITE>
 2a0:	60 e0       	ldi	r22, 0x00	; 0
 2a2:	8d e2       	ldi	r24, 0x2D	; 45
 2a4:	0e 94 ea 04 	call	0x9d4	; 0x9d4 <PIN_WRITE>
 2a8:	60 e0       	ldi	r22, 0x00	; 0
 2aa:	8e e2       	ldi	r24, 0x2E	; 46
 2ac:	0e 94 ea 04 	call	0x9d4	; 0x9d4 <PIN_WRITE>
 2b0:	61 e0       	ldi	r22, 0x01	; 1
 2b2:	8f e2       	ldi	r24, 0x2F	; 47
 2b4:	0e 94 ea 04 	call	0x9d4	; 0x9d4 <PIN_WRITE>
 2b8:	8f e3       	ldi	r24, 0x3F	; 63
 2ba:	9c e9       	ldi	r25, 0x9C	; 156
 2bc:	01 97       	sbiw	r24, 0x01	; 1
 2be:	f1 f7       	brne	.-4      	; 0x2bc <S_SEG_DISPLAY+0x1b0>
 2c0:	00 c0       	rjmp	.+0      	; 0x2c2 <S_SEG_DISPLAY+0x1b6>
 2c2:	00 00       	nop
 2c4:	60 e0       	ldi	r22, 0x00	; 0
 2c6:	8c e0       	ldi	r24, 0x0C	; 12
 2c8:	0e 94 ea 04 	call	0x9d4	; 0x9d4 <PIN_WRITE>
 2cc:	61 e0       	ldi	r22, 0x01	; 1
 2ce:	8b e0       	ldi	r24, 0x0B	; 11
 2d0:	0e 94 ea 04 	call	0x9d4	; 0x9d4 <PIN_WRITE>
 2d4:	9a e0       	ldi	r25, 0x0A	; 10
 2d6:	89 16       	cp	r8, r25
 2d8:	91 04       	cpc	r9, r1
 2da:	08 f0       	brcs	.+2      	; 0x2de <S_SEG_DISPLAY+0x1d2>
 2dc:	ae c0       	rjmp	.+348    	; 0x43a <__EEPROM_REGION_LENGTH__+0x3a>
 2de:	f4 01       	movw	r30, r8
 2e0:	ec 5c       	subi	r30, 0xCC	; 204
 2e2:	ff 4f       	sbci	r31, 0xFF	; 255
 2e4:	0c 94 d9 05 	jmp	0xbb2	; 0xbb2 <__tablejump2__>
 2e8:	60 e0       	ldi	r22, 0x00	; 0
 2ea:	8c e2       	ldi	r24, 0x2C	; 44
 2ec:	0e 94 ea 04 	call	0x9d4	; 0x9d4 <PIN_WRITE>
 2f0:	60 e0       	ldi	r22, 0x00	; 0
 2f2:	8d e2       	ldi	r24, 0x2D	; 45
 2f4:	0e 94 ea 04 	call	0x9d4	; 0x9d4 <PIN_WRITE>
 2f8:	60 e0       	ldi	r22, 0x00	; 0
 2fa:	8e e2       	ldi	r24, 0x2E	; 46
 2fc:	0e 94 ea 04 	call	0x9d4	; 0x9d4 <PIN_WRITE>
 300:	60 e0       	ldi	r22, 0x00	; 0
 302:	8f e2       	ldi	r24, 0x2F	; 47
 304:	0e 94 ea 04 	call	0x9d4	; 0x9d4 <PIN_WRITE>
 308:	98 c0       	rjmp	.+304    	; 0x43a <__EEPROM_REGION_LENGTH__+0x3a>
 30a:	61 e0       	ldi	r22, 0x01	; 1
 30c:	8c e2       	ldi	r24, 0x2C	; 44
 30e:	0e 94 ea 04 	call	0x9d4	; 0x9d4 <PIN_WRITE>
 312:	60 e0       	ldi	r22, 0x00	; 0
 314:	8d e2       	ldi	r24, 0x2D	; 45
 316:	0e 94 ea 04 	call	0x9d4	; 0x9d4 <PIN_WRITE>
 31a:	60 e0       	ldi	r22, 0x00	; 0
 31c:	8e e2       	ldi	r24, 0x2E	; 46
 31e:	0e 94 ea 04 	call	0x9d4	; 0x9d4 <PIN_WRITE>
 322:	60 e0       	ldi	r22, 0x00	; 0
 324:	8f e2       	ldi	r24, 0x2F	; 47
 326:	0e 94 ea 04 	call	0x9d4	; 0x9d4 <PIN_WRITE>
 32a:	87 c0       	rjmp	.+270    	; 0x43a <__EEPROM_REGION_LENGTH__+0x3a>
 32c:	60 e0       	ldi	r22, 0x00	; 0
 32e:	8c e2       	ldi	r24, 0x2C	; 44
 330:	0e 94 ea 04 	call	0x9d4	; 0x9d4 <PIN_WRITE>
 334:	61 e0       	ldi	r22, 0x01	; 1
 336:	8d e2       	ldi	r24, 0x2D	; 45
 338:	0e 94 ea 04 	call	0x9d4	; 0x9d4 <PIN_WRITE>
 33c:	60 e0       	ldi	r22, 0x00	; 0
 33e:	8e e2       	ldi	r24, 0x2E	; 46
 340:	0e 94 ea 04 	call	0x9d4	; 0x9d4 <PIN_WRITE>
 344:	60 e0       	ldi	r22, 0x00	; 0
 346:	8f e2       	ldi	r24, 0x2F	; 47
 348:	0e 94 ea 04 	call	0x9d4	; 0x9d4 <PIN_WRITE>
 34c:	76 c0       	rjmp	.+236    	; 0x43a <__EEPROM_REGION_LENGTH__+0x3a>
 34e:	61 e0       	ldi	r22, 0x01	; 1
 350:	8c e2       	ldi	r24, 0x2C	; 44
 352:	0e 94 ea 04 	call	0x9d4	; 0x9d4 <PIN_WRITE>
 356:	61 e0       	ldi	r22, 0x01	; 1
 358:	8d e2       	ldi	r24, 0x2D	; 45
 35a:	0e 94 ea 04 	call	0x9d4	; 0x9d4 <PIN_WRITE>
 35e:	60 e0       	ldi	r22, 0x00	; 0
 360:	8e e2       	ldi	r24, 0x2E	; 46
 362:	0e 94 ea 04 	call	0x9d4	; 0x9d4 <PIN_WRITE>
 366:	60 e0       	ldi	r22, 0x00	; 0
 368:	8f e2       	ldi	r24, 0x2F	; 47
 36a:	0e 94 ea 04 	call	0x9d4	; 0x9d4 <PIN_WRITE>
 36e:	65 c0       	rjmp	.+202    	; 0x43a <__EEPROM_REGION_LENGTH__+0x3a>
 370:	60 e0       	ldi	r22, 0x00	; 0
 372:	8c e2       	ldi	r24, 0x2C	; 44
 374:	0e 94 ea 04 	call	0x9d4	; 0x9d4 <PIN_WRITE>
 378:	60 e0       	ldi	r22, 0x00	; 0
 37a:	8d e2       	ldi	r24, 0x2D	; 45
 37c:	0e 94 ea 04 	call	0x9d4	; 0x9d4 <PIN_WRITE>
 380:	61 e0       	ldi	r22, 0x01	; 1
 382:	8e e2       	ldi	r24, 0x2E	; 46
 384:	0e 94 ea 04 	call	0x9d4	; 0x9d4 <PIN_WRITE>
 388:	60 e0       	ldi	r22, 0x00	; 0
 38a:	8f e2       	ldi	r24, 0x2F	; 47
 38c:	0e 94 ea 04 	call	0x9d4	; 0x9d4 <PIN_WRITE>
 390:	54 c0       	rjmp	.+168    	; 0x43a <__EEPROM_REGION_LENGTH__+0x3a>
 392:	61 e0       	ldi	r22, 0x01	; 1
 394:	8c e2       	ldi	r24, 0x2C	; 44
 396:	0e 94 ea 04 	call	0x9d4	; 0x9d4 <PIN_WRITE>
 39a:	60 e0       	ldi	r22, 0x00	; 0
 39c:	8d e2       	ldi	r24, 0x2D	; 45
 39e:	0e 94 ea 04 	call	0x9d4	; 0x9d4 <PIN_WRITE>
 3a2:	61 e0       	ldi	r22, 0x01	; 1
 3a4:	8e e2       	ldi	r24, 0x2E	; 46
 3a6:	0e 94 ea 04 	call	0x9d4	; 0x9d4 <PIN_WRITE>
 3aa:	60 e0       	ldi	r22, 0x00	; 0
 3ac:	8f e2       	ldi	r24, 0x2F	; 47
 3ae:	0e 94 ea 04 	call	0x9d4	; 0x9d4 <PIN_WRITE>
 3b2:	43 c0       	rjmp	.+134    	; 0x43a <__EEPROM_REGION_LENGTH__+0x3a>
 3b4:	60 e0       	ldi	r22, 0x00	; 0
 3b6:	8c e2       	ldi	r24, 0x2C	; 44
 3b8:	0e 94 ea 04 	call	0x9d4	; 0x9d4 <PIN_WRITE>
 3bc:	61 e0       	ldi	r22, 0x01	; 1
 3be:	8d e2       	ldi	r24, 0x2D	; 45
 3c0:	0e 94 ea 04 	call	0x9d4	; 0x9d4 <PIN_WRITE>
 3c4:	61 e0       	ldi	r22, 0x01	; 1
 3c6:	8e e2       	ldi	r24, 0x2E	; 46
 3c8:	0e 94 ea 04 	call	0x9d4	; 0x9d4 <PIN_WRITE>
 3cc:	60 e0       	ldi	r22, 0x00	; 0
 3ce:	8f e2       	ldi	r24, 0x2F	; 47
 3d0:	0e 94 ea 04 	call	0x9d4	; 0x9d4 <PIN_WRITE>
 3d4:	32 c0       	rjmp	.+100    	; 0x43a <__EEPROM_REGION_LENGTH__+0x3a>
 3d6:	61 e0       	ldi	r22, 0x01	; 1
 3d8:	8c e2       	ldi	r24, 0x2C	; 44
 3da:	0e 94 ea 04 	call	0x9d4	; 0x9d4 <PIN_WRITE>
 3de:	61 e0       	ldi	r22, 0x01	; 1
 3e0:	8d e2       	ldi	r24, 0x2D	; 45
 3e2:	0e 94 ea 04 	call	0x9d4	; 0x9d4 <PIN_WRITE>
 3e6:	61 e0       	ldi	r22, 0x01	; 1
 3e8:	8e e2       	ldi	r24, 0x2E	; 46
 3ea:	0e 94 ea 04 	call	0x9d4	; 0x9d4 <PIN_WRITE>
 3ee:	60 e0       	ldi	r22, 0x00	; 0
 3f0:	8f e2       	ldi	r24, 0x2F	; 47
 3f2:	0e 94 ea 04 	call	0x9d4	; 0x9d4 <PIN_WRITE>
 3f6:	21 c0       	rjmp	.+66     	; 0x43a <__EEPROM_REGION_LENGTH__+0x3a>
 3f8:	60 e0       	ldi	r22, 0x00	; 0
 3fa:	8c e2       	ldi	r24, 0x2C	; 44
 3fc:	0e 94 ea 04 	call	0x9d4	; 0x9d4 <PIN_WRITE>
 400:	60 e0       	ldi	r22, 0x00	; 0
 402:	8d e2       	ldi	r24, 0x2D	; 45
 404:	0e 94 ea 04 	call	0x9d4	; 0x9d4 <PIN_WRITE>
 408:	60 e0       	ldi	r22, 0x00	; 0
 40a:	8e e2       	ldi	r24, 0x2E	; 46
 40c:	0e 94 ea 04 	call	0x9d4	; 0x9d4 <PIN_WRITE>
 410:	61 e0       	ldi	r22, 0x01	; 1
 412:	8f e2       	ldi	r24, 0x2F	; 47
 414:	0e 94 ea 04 	call	0x9d4	; 0x9d4 <PIN_WRITE>
 418:	10 c0       	rjmp	.+32     	; 0x43a <__EEPROM_REGION_LENGTH__+0x3a>
 41a:	61 e0       	ldi	r22, 0x01	; 1
 41c:	8c e2       	ldi	r24, 0x2C	; 44
 41e:	0e 94 ea 04 	call	0x9d4	; 0x9d4 <PIN_WRITE>
 422:	60 e0       	ldi	r22, 0x00	; 0
 424:	8d e2       	ldi	r24, 0x2D	; 45
 426:	0e 94 ea 04 	call	0x9d4	; 0x9d4 <PIN_WRITE>
 42a:	60 e0       	ldi	r22, 0x00	; 0
 42c:	8e e2       	ldi	r24, 0x2E	; 46
 42e:	0e 94 ea 04 	call	0x9d4	; 0x9d4 <PIN_WRITE>
 432:	61 e0       	ldi	r22, 0x01	; 1
 434:	8f e2       	ldi	r24, 0x2F	; 47
 436:	0e 94 ea 04 	call	0x9d4	; 0x9d4 <PIN_WRITE>
 43a:	8f e3       	ldi	r24, 0x3F	; 63
 43c:	9c e9       	ldi	r25, 0x9C	; 156
 43e:	01 97       	sbiw	r24, 0x01	; 1
 440:	f1 f7       	brne	.-4      	; 0x43e <__EEPROM_REGION_LENGTH__+0x3e>
 442:	00 c0       	rjmp	.+0      	; 0x444 <__EEPROM_REGION_LENGTH__+0x44>
 444:	00 00       	nop
 446:	60 e0       	ldi	r22, 0x00	; 0
 448:	8b e0       	ldi	r24, 0x0B	; 11
 44a:	0e 94 ea 04 	call	0x9d4	; 0x9d4 <PIN_WRITE>
 44e:	c1 50       	subi	r28, 0x01	; 1
 450:	09 f0       	breq	.+2      	; 0x454 <__EEPROM_REGION_LENGTH__+0x54>
 452:	77 ce       	rjmp	.-786    	; 0x142 <S_SEG_DISPLAY+0x36>
 454:	cf 91       	pop	r28
 456:	ff 90       	pop	r15
 458:	ef 90       	pop	r14
 45a:	df 90       	pop	r13
 45c:	cf 90       	pop	r12
 45e:	bf 90       	pop	r11
 460:	af 90       	pop	r10
 462:	9f 90       	pop	r9
 464:	8f 90       	pop	r8
 466:	08 95       	ret

00000468 <S_SEG_TIMER>:

void S_SEG_TIMER       (uint8 full_number)
{
 468:	af 92       	push	r10
 46a:	bf 92       	push	r11
 46c:	cf 92       	push	r12
 46e:	df 92       	push	r13
 470:	ef 92       	push	r14
 472:	ff 92       	push	r15
 474:	0f 93       	push	r16
 476:	1f 93       	push	r17
 478:	cf 93       	push	r28
 47a:	df 93       	push	r29
	uint16 j;
	for(j=0;j<=full_number;j++)
 47c:	a8 2e       	mov	r10, r24
 47e:	b1 2c       	mov	r11, r1
 480:	c1 2c       	mov	r12, r1
 482:	d1 2c       	mov	r13, r1
 484:	8e c1       	rjmp	.+796    	; 0x7a2 <S_SEG_TIMER+0x33a>
		uint16 i;
		for(i=0;i<50;i++)
		{
			uint8 l_part = (j / 10);
			uint8 r_part = (j % 10);
			PIN_WRITE(S_SEG_EN_1_PIN,HIGH);
 486:	61 e0       	ldi	r22, 0x01	; 1
 488:	8c e0       	ldi	r24, 0x0C	; 12
 48a:	0e 94 ea 04 	call	0x9d4	; 0x9d4 <PIN_WRITE>
			PIN_WRITE(S_SEG_EN_2_PIN,LOW);
 48e:	60 e0       	ldi	r22, 0x00	; 0
 490:	8b e0       	ldi	r24, 0x0B	; 11
 492:	0e 94 ea 04 	call	0x9d4	; 0x9d4 <PIN_WRITE>
			switch(l_part)
 496:	8a e0       	ldi	r24, 0x0A	; 10
 498:	e8 16       	cp	r14, r24
 49a:	f1 04       	cpc	r15, r1
 49c:	08 f0       	brcs	.+2      	; 0x4a0 <S_SEG_TIMER+0x38>
 49e:	ae c0       	rjmp	.+348    	; 0x5fc <S_SEG_TIMER+0x194>
 4a0:	f7 01       	movw	r30, r14
 4a2:	e2 5c       	subi	r30, 0xC2	; 194
 4a4:	ff 4f       	sbci	r31, 0xFF	; 255
 4a6:	0c 94 d9 05 	jmp	0xbb2	; 0xbb2 <__tablejump2__>
			{
				case 0:
				PIN_WRITE(S_SEG_A_PIN,LOW);
 4aa:	60 e0       	ldi	r22, 0x00	; 0
 4ac:	8c e2       	ldi	r24, 0x2C	; 44
 4ae:	0e 94 ea 04 	call	0x9d4	; 0x9d4 <PIN_WRITE>
				PIN_WRITE(S_SEG_B_PIN,LOW);
 4b2:	60 e0       	ldi	r22, 0x00	; 0
 4b4:	8d e2       	ldi	r24, 0x2D	; 45
 4b6:	0e 94 ea 04 	call	0x9d4	; 0x9d4 <PIN_WRITE>
				PIN_WRITE(S_SEG_C_PIN,LOW);
 4ba:	60 e0       	ldi	r22, 0x00	; 0
 4bc:	8e e2       	ldi	r24, 0x2E	; 46
 4be:	0e 94 ea 04 	call	0x9d4	; 0x9d4 <PIN_WRITE>
				PIN_WRITE(S_SEG_D_PIN,LOW);
 4c2:	60 e0       	ldi	r22, 0x00	; 0
 4c4:	8f e2       	ldi	r24, 0x2F	; 47
 4c6:	0e 94 ea 04 	call	0x9d4	; 0x9d4 <PIN_WRITE>
				break;
 4ca:	98 c0       	rjmp	.+304    	; 0x5fc <S_SEG_TIMER+0x194>
				case 1:
				PIN_WRITE(S_SEG_A_PIN,HIGH);
 4cc:	61 e0       	ldi	r22, 0x01	; 1
 4ce:	8c e2       	ldi	r24, 0x2C	; 44
 4d0:	0e 94 ea 04 	call	0x9d4	; 0x9d4 <PIN_WRITE>
				PIN_WRITE(S_SEG_B_PIN,LOW);
 4d4:	60 e0       	ldi	r22, 0x00	; 0
 4d6:	8d e2       	ldi	r24, 0x2D	; 45
 4d8:	0e 94 ea 04 	call	0x9d4	; 0x9d4 <PIN_WRITE>
				PIN_WRITE(S_SEG_C_PIN,LOW);
 4dc:	60 e0       	ldi	r22, 0x00	; 0
 4de:	8e e2       	ldi	r24, 0x2E	; 46
 4e0:	0e 94 ea 04 	call	0x9d4	; 0x9d4 <PIN_WRITE>
				PIN_WRITE(S_SEG_D_PIN,LOW);
 4e4:	60 e0       	ldi	r22, 0x00	; 0
 4e6:	8f e2       	ldi	r24, 0x2F	; 47
 4e8:	0e 94 ea 04 	call	0x9d4	; 0x9d4 <PIN_WRITE>
				break;
 4ec:	87 c0       	rjmp	.+270    	; 0x5fc <S_SEG_TIMER+0x194>
				case 2:
				PIN_WRITE(S_SEG_A_PIN,LOW);
 4ee:	60 e0       	ldi	r22, 0x00	; 0
 4f0:	8c e2       	ldi	r24, 0x2C	; 44
 4f2:	0e 94 ea 04 	call	0x9d4	; 0x9d4 <PIN_WRITE>
				PIN_WRITE(S_SEG_B_PIN,HIGH);
 4f6:	61 e0       	ldi	r22, 0x01	; 1
 4f8:	8d e2       	ldi	r24, 0x2D	; 45
 4fa:	0e 94 ea 04 	call	0x9d4	; 0x9d4 <PIN_WRITE>
				PIN_WRITE(S_SEG_C_PIN,LOW);
 4fe:	60 e0       	ldi	r22, 0x00	; 0
 500:	8e e2       	ldi	r24, 0x2E	; 46
 502:	0e 94 ea 04 	call	0x9d4	; 0x9d4 <PIN_WRITE>
				PIN_WRITE(S_SEG_D_PIN,LOW);
 506:	60 e0       	ldi	r22, 0x00	; 0
 508:	8f e2       	ldi	r24, 0x2F	; 47
 50a:	0e 94 ea 04 	call	0x9d4	; 0x9d4 <PIN_WRITE>
				break;
 50e:	76 c0       	rjmp	.+236    	; 0x5fc <S_SEG_TIMER+0x194>
				case 3:
				PIN_WRITE(S_SEG_A_PIN,HIGH);
 510:	61 e0       	ldi	r22, 0x01	; 1
 512:	8c e2       	ldi	r24, 0x2C	; 44
 514:	0e 94 ea 04 	call	0x9d4	; 0x9d4 <PIN_WRITE>
				PIN_WRITE(S_SEG_B_PIN,HIGH);
 518:	61 e0       	ldi	r22, 0x01	; 1
 51a:	8d e2       	ldi	r24, 0x2D	; 45
 51c:	0e 94 ea 04 	call	0x9d4	; 0x9d4 <PIN_WRITE>
				PIN_WRITE(S_SEG_C_PIN,LOW);
 520:	60 e0       	ldi	r22, 0x00	; 0
 522:	8e e2       	ldi	r24, 0x2E	; 46
 524:	0e 94 ea 04 	call	0x9d4	; 0x9d4 <PIN_WRITE>
				PIN_WRITE(S_SEG_D_PIN,LOW);
 528:	60 e0       	ldi	r22, 0x00	; 0
 52a:	8f e2       	ldi	r24, 0x2F	; 47
 52c:	0e 94 ea 04 	call	0x9d4	; 0x9d4 <PIN_WRITE>
				break;
 530:	65 c0       	rjmp	.+202    	; 0x5fc <S_SEG_TIMER+0x194>
				case 4:
				PIN_WRITE(S_SEG_A_PIN,LOW);
 532:	60 e0       	ldi	r22, 0x00	; 0
 534:	8c e2       	ldi	r24, 0x2C	; 44
 536:	0e 94 ea 04 	call	0x9d4	; 0x9d4 <PIN_WRITE>
				PIN_WRITE(S_SEG_B_PIN,LOW);
 53a:	60 e0       	ldi	r22, 0x00	; 0
 53c:	8d e2       	ldi	r24, 0x2D	; 45
 53e:	0e 94 ea 04 	call	0x9d4	; 0x9d4 <PIN_WRITE>
				PIN_WRITE(S_SEG_C_PIN,HIGH);
 542:	61 e0       	ldi	r22, 0x01	; 1
 544:	8e e2       	ldi	r24, 0x2E	; 46
 546:	0e 94 ea 04 	call	0x9d4	; 0x9d4 <PIN_WRITE>
				PIN_WRITE(S_SEG_D_PIN,LOW);
 54a:	60 e0       	ldi	r22, 0x00	; 0
 54c:	8f e2       	ldi	r24, 0x2F	; 47
 54e:	0e 94 ea 04 	call	0x9d4	; 0x9d4 <PIN_WRITE>
				break;
 552:	54 c0       	rjmp	.+168    	; 0x5fc <S_SEG_TIMER+0x194>
				case 5:
				PIN_WRITE(S_SEG_A_PIN,HIGH);
 554:	61 e0       	ldi	r22, 0x01	; 1
 556:	8c e2       	ldi	r24, 0x2C	; 44
 558:	0e 94 ea 04 	call	0x9d4	; 0x9d4 <PIN_WRITE>
				PIN_WRITE(S_SEG_B_PIN,LOW);
 55c:	60 e0       	ldi	r22, 0x00	; 0
 55e:	8d e2       	ldi	r24, 0x2D	; 45
 560:	0e 94 ea 04 	call	0x9d4	; 0x9d4 <PIN_WRITE>
				PIN_WRITE(S_SEG_C_PIN,HIGH);
 564:	61 e0       	ldi	r22, 0x01	; 1
 566:	8e e2       	ldi	r24, 0x2E	; 46
 568:	0e 94 ea 04 	call	0x9d4	; 0x9d4 <PIN_WRITE>
				PIN_WRITE(S_SEG_D_PIN,LOW);
 56c:	60 e0       	ldi	r22, 0x00	; 0
 56e:	8f e2       	ldi	r24, 0x2F	; 47
 570:	0e 94 ea 04 	call	0x9d4	; 0x9d4 <PIN_WRITE>
				break;
 574:	43 c0       	rjmp	.+134    	; 0x5fc <S_SEG_TIMER+0x194>
				case 6:
				PIN_WRITE(S_SEG_A_PIN,LOW);
 576:	60 e0       	ldi	r22, 0x00	; 0
 578:	8c e2       	ldi	r24, 0x2C	; 44
 57a:	0e 94 ea 04 	call	0x9d4	; 0x9d4 <PIN_WRITE>
				PIN_WRITE(S_SEG_B_PIN,HIGH);
 57e:	61 e0       	ldi	r22, 0x01	; 1
 580:	8d e2       	ldi	r24, 0x2D	; 45
 582:	0e 94 ea 04 	call	0x9d4	; 0x9d4 <PIN_WRITE>
				PIN_WRITE(S_SEG_C_PIN,HIGH);
 586:	61 e0       	ldi	r22, 0x01	; 1
 588:	8e e2       	ldi	r24, 0x2E	; 46
 58a:	0e 94 ea 04 	call	0x9d4	; 0x9d4 <PIN_WRITE>
				PIN_WRITE(S_SEG_D_PIN,LOW);
 58e:	60 e0       	ldi	r22, 0x00	; 0
 590:	8f e2       	ldi	r24, 0x2F	; 47
 592:	0e 94 ea 04 	call	0x9d4	; 0x9d4 <PIN_WRITE>
				break;
 596:	32 c0       	rjmp	.+100    	; 0x5fc <S_SEG_TIMER+0x194>
				case 7:
				PIN_WRITE(S_SEG_A_PIN,HIGH);
 598:	61 e0       	ldi	r22, 0x01	; 1
 59a:	8c e2       	ldi	r24, 0x2C	; 44
 59c:	0e 94 ea 04 	call	0x9d4	; 0x9d4 <PIN_WRITE>
				PIN_WRITE(S_SEG_B_PIN,HIGH);
 5a0:	61 e0       	ldi	r22, 0x01	; 1
 5a2:	8d e2       	ldi	r24, 0x2D	; 45
 5a4:	0e 94 ea 04 	call	0x9d4	; 0x9d4 <PIN_WRITE>
				PIN_WRITE(S_SEG_C_PIN,HIGH);
 5a8:	61 e0       	ldi	r22, 0x01	; 1
 5aa:	8e e2       	ldi	r24, 0x2E	; 46
 5ac:	0e 94 ea 04 	call	0x9d4	; 0x9d4 <PIN_WRITE>
				PIN_WRITE(S_SEG_D_PIN,LOW);
 5b0:	60 e0       	ldi	r22, 0x00	; 0
 5b2:	8f e2       	ldi	r24, 0x2F	; 47
 5b4:	0e 94 ea 04 	call	0x9d4	; 0x9d4 <PIN_WRITE>
				break;
 5b8:	21 c0       	rjmp	.+66     	; 0x5fc <S_SEG_TIMER+0x194>
				case 8:
				PIN_WRITE(S_SEG_A_PIN,LOW);
 5ba:	60 e0       	ldi	r22, 0x00	; 0
 5bc:	8c e2       	ldi	r24, 0x2C	; 44
 5be:	0e 94 ea 04 	call	0x9d4	; 0x9d4 <PIN_WRITE>
				PIN_WRITE(S_SEG_B_PIN,LOW);
 5c2:	60 e0       	ldi	r22, 0x00	; 0
 5c4:	8d e2       	ldi	r24, 0x2D	; 45
 5c6:	0e 94 ea 04 	call	0x9d4	; 0x9d4 <PIN_WRITE>
				PIN_WRITE(S_SEG_C_PIN,LOW);
 5ca:	60 e0       	ldi	r22, 0x00	; 0
 5cc:	8e e2       	ldi	r24, 0x2E	; 46
 5ce:	0e 94 ea 04 	call	0x9d4	; 0x9d4 <PIN_WRITE>
				PIN_WRITE(S_SEG_D_PIN,HIGH);
 5d2:	61 e0       	ldi	r22, 0x01	; 1
 5d4:	8f e2       	ldi	r24, 0x2F	; 47
 5d6:	0e 94 ea 04 	call	0x9d4	; 0x9d4 <PIN_WRITE>
				break;
 5da:	10 c0       	rjmp	.+32     	; 0x5fc <S_SEG_TIMER+0x194>
				case 9:
				PIN_WRITE(S_SEG_A_PIN,HIGH);
 5dc:	61 e0       	ldi	r22, 0x01	; 1
 5de:	8c e2       	ldi	r24, 0x2C	; 44
 5e0:	0e 94 ea 04 	call	0x9d4	; 0x9d4 <PIN_WRITE>
				PIN_WRITE(S_SEG_B_PIN,LOW);
 5e4:	60 e0       	ldi	r22, 0x00	; 0
 5e6:	8d e2       	ldi	r24, 0x2D	; 45
 5e8:	0e 94 ea 04 	call	0x9d4	; 0x9d4 <PIN_WRITE>
				PIN_WRITE(S_SEG_C_PIN,LOW);
 5ec:	60 e0       	ldi	r22, 0x00	; 0
 5ee:	8e e2       	ldi	r24, 0x2E	; 46
 5f0:	0e 94 ea 04 	call	0x9d4	; 0x9d4 <PIN_WRITE>
				PIN_WRITE(S_SEG_D_PIN,HIGH);
 5f4:	61 e0       	ldi	r22, 0x01	; 1
 5f6:	8f e2       	ldi	r24, 0x2F	; 47
 5f8:	0e 94 ea 04 	call	0x9d4	; 0x9d4 <PIN_WRITE>
	#else
		//round up by default
		__ticks_dc = (uint32_t)(ceil(fabs(__tmp)));
	#endif

	__builtin_avr_delay_cycles(__ticks_dc);
 5fc:	8f e3       	ldi	r24, 0x3F	; 63
 5fe:	9c e9       	ldi	r25, 0x9C	; 156
 600:	01 97       	sbiw	r24, 0x01	; 1
 602:	f1 f7       	brne	.-4      	; 0x600 <S_SEG_TIMER+0x198>
 604:	00 c0       	rjmp	.+0      	; 0x606 <S_SEG_TIMER+0x19e>
 606:	00 00       	nop
				break;
			}
			_delay_ms(10);
			PIN_WRITE(S_SEG_EN_1_PIN,LOW);
 608:	60 e0       	ldi	r22, 0x00	; 0
 60a:	8c e0       	ldi	r24, 0x0C	; 12
 60c:	0e 94 ea 04 	call	0x9d4	; 0x9d4 <PIN_WRITE>
			PIN_WRITE(S_SEG_EN_2_PIN,HIGH);
 610:	61 e0       	ldi	r22, 0x01	; 1
 612:	8b e0       	ldi	r24, 0x0B	; 11
 614:	0e 94 ea 04 	call	0x9d4	; 0x9d4 <PIN_WRITE>
			switch(r_part)
 618:	0a 30       	cpi	r16, 0x0A	; 10
 61a:	11 05       	cpc	r17, r1
 61c:	08 f0       	brcs	.+2      	; 0x620 <S_SEG_TIMER+0x1b8>
 61e:	ae c0       	rjmp	.+348    	; 0x77c <S_SEG_TIMER+0x314>
 620:	f8 01       	movw	r30, r16
 622:	e8 5b       	subi	r30, 0xB8	; 184
 624:	ff 4f       	sbci	r31, 0xFF	; 255
 626:	0c 94 d9 05 	jmp	0xbb2	; 0xbb2 <__tablejump2__>
			{
				case 0:
				PIN_WRITE(S_SEG_A_PIN,LOW);
 62a:	60 e0       	ldi	r22, 0x00	; 0
 62c:	8c e2       	ldi	r24, 0x2C	; 44
 62e:	0e 94 ea 04 	call	0x9d4	; 0x9d4 <PIN_WRITE>
				PIN_WRITE(S_SEG_B_PIN,LOW);
 632:	60 e0       	ldi	r22, 0x00	; 0
 634:	8d e2       	ldi	r24, 0x2D	; 45
 636:	0e 94 ea 04 	call	0x9d4	; 0x9d4 <PIN_WRITE>
				PIN_WRITE(S_SEG_C_PIN,LOW);
 63a:	60 e0       	ldi	r22, 0x00	; 0
 63c:	8e e2       	ldi	r24, 0x2E	; 46
 63e:	0e 94 ea 04 	call	0x9d4	; 0x9d4 <PIN_WRITE>
				PIN_WRITE(S_SEG_D_PIN,LOW);
 642:	60 e0       	ldi	r22, 0x00	; 0
 644:	8f e2       	ldi	r24, 0x2F	; 47
 646:	0e 94 ea 04 	call	0x9d4	; 0x9d4 <PIN_WRITE>
				break;
 64a:	98 c0       	rjmp	.+304    	; 0x77c <S_SEG_TIMER+0x314>
				case 1:
				PIN_WRITE(S_SEG_A_PIN,HIGH);
 64c:	61 e0       	ldi	r22, 0x01	; 1
 64e:	8c e2       	ldi	r24, 0x2C	; 44
 650:	0e 94 ea 04 	call	0x9d4	; 0x9d4 <PIN_WRITE>
				PIN_WRITE(S_SEG_B_PIN,LOW);
 654:	60 e0       	ldi	r22, 0x00	; 0
 656:	8d e2       	ldi	r24, 0x2D	; 45
 658:	0e 94 ea 04 	call	0x9d4	; 0x9d4 <PIN_WRITE>
				PIN_WRITE(S_SEG_C_PIN,LOW);
 65c:	60 e0       	ldi	r22, 0x00	; 0
 65e:	8e e2       	ldi	r24, 0x2E	; 46
 660:	0e 94 ea 04 	call	0x9d4	; 0x9d4 <PIN_WRITE>
				PIN_WRITE(S_SEG_D_PIN,LOW);
 664:	60 e0       	ldi	r22, 0x00	; 0
 666:	8f e2       	ldi	r24, 0x2F	; 47
 668:	0e 94 ea 04 	call	0x9d4	; 0x9d4 <PIN_WRITE>
				break;
 66c:	87 c0       	rjmp	.+270    	; 0x77c <S_SEG_TIMER+0x314>
				case 2:
				PIN_WRITE(S_SEG_A_PIN,LOW);
 66e:	60 e0       	ldi	r22, 0x00	; 0
 670:	8c e2       	ldi	r24, 0x2C	; 44
 672:	0e 94 ea 04 	call	0x9d4	; 0x9d4 <PIN_WRITE>
				PIN_WRITE(S_SEG_B_PIN,HIGH);
 676:	61 e0       	ldi	r22, 0x01	; 1
 678:	8d e2       	ldi	r24, 0x2D	; 45
 67a:	0e 94 ea 04 	call	0x9d4	; 0x9d4 <PIN_WRITE>
				PIN_WRITE(S_SEG_C_PIN,LOW);
 67e:	60 e0       	ldi	r22, 0x00	; 0
 680:	8e e2       	ldi	r24, 0x2E	; 46
 682:	0e 94 ea 04 	call	0x9d4	; 0x9d4 <PIN_WRITE>
				PIN_WRITE(S_SEG_D_PIN,LOW);
 686:	60 e0       	ldi	r22, 0x00	; 0
 688:	8f e2       	ldi	r24, 0x2F	; 47
 68a:	0e 94 ea 04 	call	0x9d4	; 0x9d4 <PIN_WRITE>
				break;
 68e:	76 c0       	rjmp	.+236    	; 0x77c <S_SEG_TIMER+0x314>
				case 3:
				PIN_WRITE(S_SEG_A_PIN,HIGH);
 690:	61 e0       	ldi	r22, 0x01	; 1
 692:	8c e2       	ldi	r24, 0x2C	; 44
 694:	0e 94 ea 04 	call	0x9d4	; 0x9d4 <PIN_WRITE>
				PIN_WRITE(S_SEG_B_PIN,HIGH);
 698:	61 e0       	ldi	r22, 0x01	; 1
 69a:	8d e2       	ldi	r24, 0x2D	; 45
 69c:	0e 94 ea 04 	call	0x9d4	; 0x9d4 <PIN_WRITE>
				PIN_WRITE(S_SEG_C_PIN,LOW);
 6a0:	60 e0       	ldi	r22, 0x00	; 0
 6a2:	8e e2       	ldi	r24, 0x2E	; 46
 6a4:	0e 94 ea 04 	call	0x9d4	; 0x9d4 <PIN_WRITE>
				PIN_WRITE(S_SEG_D_PIN,LOW);
 6a8:	60 e0       	ldi	r22, 0x00	; 0
 6aa:	8f e2       	ldi	r24, 0x2F	; 47
 6ac:	0e 94 ea 04 	call	0x9d4	; 0x9d4 <PIN_WRITE>
				break;
 6b0:	65 c0       	rjmp	.+202    	; 0x77c <S_SEG_TIMER+0x314>
				case 4:
				PIN_WRITE(S_SEG_A_PIN,LOW);
 6b2:	60 e0       	ldi	r22, 0x00	; 0
 6b4:	8c e2       	ldi	r24, 0x2C	; 44
 6b6:	0e 94 ea 04 	call	0x9d4	; 0x9d4 <PIN_WRITE>
				PIN_WRITE(S_SEG_B_PIN,LOW);
 6ba:	60 e0       	ldi	r22, 0x00	; 0
 6bc:	8d e2       	ldi	r24, 0x2D	; 45
 6be:	0e 94 ea 04 	call	0x9d4	; 0x9d4 <PIN_WRITE>
				PIN_WRITE(S_SEG_C_PIN,HIGH);
 6c2:	61 e0       	ldi	r22, 0x01	; 1
 6c4:	8e e2       	ldi	r24, 0x2E	; 46
 6c6:	0e 94 ea 04 	call	0x9d4	; 0x9d4 <PIN_WRITE>
				PIN_WRITE(S_SEG_D_PIN,LOW);
 6ca:	60 e0       	ldi	r22, 0x00	; 0
 6cc:	8f e2       	ldi	r24, 0x2F	; 47
 6ce:	0e 94 ea 04 	call	0x9d4	; 0x9d4 <PIN_WRITE>
				break;
 6d2:	54 c0       	rjmp	.+168    	; 0x77c <S_SEG_TIMER+0x314>
				case 5:
				PIN_WRITE(S_SEG_A_PIN,HIGH);
 6d4:	61 e0       	ldi	r22, 0x01	; 1
 6d6:	8c e2       	ldi	r24, 0x2C	; 44
 6d8:	0e 94 ea 04 	call	0x9d4	; 0x9d4 <PIN_WRITE>
				PIN_WRITE(S_SEG_B_PIN,LOW);
 6dc:	60 e0       	ldi	r22, 0x00	; 0
 6de:	8d e2       	ldi	r24, 0x2D	; 45
 6e0:	0e 94 ea 04 	call	0x9d4	; 0x9d4 <PIN_WRITE>
				PIN_WRITE(S_SEG_C_PIN,HIGH);
 6e4:	61 e0       	ldi	r22, 0x01	; 1
 6e6:	8e e2       	ldi	r24, 0x2E	; 46
 6e8:	0e 94 ea 04 	call	0x9d4	; 0x9d4 <PIN_WRITE>
				PIN_WRITE(S_SEG_D_PIN,LOW);
 6ec:	60 e0       	ldi	r22, 0x00	; 0
 6ee:	8f e2       	ldi	r24, 0x2F	; 47
 6f0:	0e 94 ea 04 	call	0x9d4	; 0x9d4 <PIN_WRITE>
				break;
 6f4:	43 c0       	rjmp	.+134    	; 0x77c <S_SEG_TIMER+0x314>
				case 6:
				PIN_WRITE(S_SEG_A_PIN,LOW);
 6f6:	60 e0       	ldi	r22, 0x00	; 0
 6f8:	8c e2       	ldi	r24, 0x2C	; 44
 6fa:	0e 94 ea 04 	call	0x9d4	; 0x9d4 <PIN_WRITE>
				PIN_WRITE(S_SEG_B_PIN,HIGH);
 6fe:	61 e0       	ldi	r22, 0x01	; 1
 700:	8d e2       	ldi	r24, 0x2D	; 45
 702:	0e 94 ea 04 	call	0x9d4	; 0x9d4 <PIN_WRITE>
				PIN_WRITE(S_SEG_C_PIN,HIGH);
 706:	61 e0       	ldi	r22, 0x01	; 1
 708:	8e e2       	ldi	r24, 0x2E	; 46
 70a:	0e 94 ea 04 	call	0x9d4	; 0x9d4 <PIN_WRITE>
				PIN_WRITE(S_SEG_D_PIN,LOW);
 70e:	60 e0       	ldi	r22, 0x00	; 0
 710:	8f e2       	ldi	r24, 0x2F	; 47
 712:	0e 94 ea 04 	call	0x9d4	; 0x9d4 <PIN_WRITE>
				break;
 716:	32 c0       	rjmp	.+100    	; 0x77c <S_SEG_TIMER+0x314>
				case 7:
				PIN_WRITE(S_SEG_A_PIN,HIGH);
 718:	61 e0       	ldi	r22, 0x01	; 1
 71a:	8c e2       	ldi	r24, 0x2C	; 44
 71c:	0e 94 ea 04 	call	0x9d4	; 0x9d4 <PIN_WRITE>
				PIN_WRITE(S_SEG_B_PIN,HIGH);
 720:	61 e0       	ldi	r22, 0x01	; 1
 722:	8d e2       	ldi	r24, 0x2D	; 45
 724:	0e 94 ea 04 	call	0x9d4	; 0x9d4 <PIN_WRITE>
				PIN_WRITE(S_SEG_C_PIN,HIGH);
 728:	61 e0       	ldi	r22, 0x01	; 1
 72a:	8e e2       	ldi	r24, 0x2E	; 46
 72c:	0e 94 ea 04 	call	0x9d4	; 0x9d4 <PIN_WRITE>
				PIN_WRITE(S_SEG_D_PIN,LOW);
 730:	60 e0       	ldi	r22, 0x00	; 0
 732:	8f e2       	ldi	r24, 0x2F	; 47
 734:	0e 94 ea 04 	call	0x9d4	; 0x9d4 <PIN_WRITE>
				break;
 738:	21 c0       	rjmp	.+66     	; 0x77c <S_SEG_TIMER+0x314>
				case 8:
				PIN_WRITE(S_SEG_A_PIN,LOW);
 73a:	60 e0       	ldi	r22, 0x00	; 0
 73c:	8c e2       	ldi	r24, 0x2C	; 44
 73e:	0e 94 ea 04 	call	0x9d4	; 0x9d4 <PIN_WRITE>
				PIN_WRITE(S_SEG_B_PIN,LOW);
 742:	60 e0       	ldi	r22, 0x00	; 0
 744:	8d e2       	ldi	r24, 0x2D	; 45
 746:	0e 94 ea 04 	call	0x9d4	; 0x9d4 <PIN_WRITE>
				PIN_WRITE(S_SEG_C_PIN,LOW);
 74a:	60 e0       	ldi	r22, 0x00	; 0
 74c:	8e e2       	ldi	r24, 0x2E	; 46
 74e:	0e 94 ea 04 	call	0x9d4	; 0x9d4 <PIN_WRITE>
				PIN_WRITE(S_SEG_D_PIN,HIGH);
 752:	61 e0       	ldi	r22, 0x01	; 1
 754:	8f e2       	ldi	r24, 0x2F	; 47
 756:	0e 94 ea 04 	call	0x9d4	; 0x9d4 <PIN_WRITE>
				break;
 75a:	10 c0       	rjmp	.+32     	; 0x77c <S_SEG_TIMER+0x314>
				case 9:
				PIN_WRITE(S_SEG_A_PIN,HIGH);
 75c:	61 e0       	ldi	r22, 0x01	; 1
 75e:	8c e2       	ldi	r24, 0x2C	; 44
 760:	0e 94 ea 04 	call	0x9d4	; 0x9d4 <PIN_WRITE>
				PIN_WRITE(S_SEG_B_PIN,LOW);
 764:	60 e0       	ldi	r22, 0x00	; 0
 766:	8d e2       	ldi	r24, 0x2D	; 45
 768:	0e 94 ea 04 	call	0x9d4	; 0x9d4 <PIN_WRITE>
				PIN_WRITE(S_SEG_C_PIN,LOW);
 76c:	60 e0       	ldi	r22, 0x00	; 0
 76e:	8e e2       	ldi	r24, 0x2E	; 46
 770:	0e 94 ea 04 	call	0x9d4	; 0x9d4 <PIN_WRITE>
				PIN_WRITE(S_SEG_D_PIN,HIGH);
 774:	61 e0       	ldi	r22, 0x01	; 1
 776:	8f e2       	ldi	r24, 0x2F	; 47
 778:	0e 94 ea 04 	call	0x9d4	; 0x9d4 <PIN_WRITE>
 77c:	8f e3       	ldi	r24, 0x3F	; 63
 77e:	9c e9       	ldi	r25, 0x9C	; 156
 780:	01 97       	sbiw	r24, 0x01	; 1
 782:	f1 f7       	brne	.-4      	; 0x780 <S_SEG_TIMER+0x318>
 784:	00 c0       	rjmp	.+0      	; 0x786 <S_SEG_TIMER+0x31e>
 786:	00 00       	nop
				break;
			}
			_delay_ms(10);
			PIN_WRITE(S_SEG_EN_2_PIN,LOW);
 788:	60 e0       	ldi	r22, 0x00	; 0
 78a:	8b e0       	ldi	r24, 0x0B	; 11
 78c:	0e 94 ea 04 	call	0x9d4	; 0x9d4 <PIN_WRITE>
 790:	21 97       	sbiw	r28, 0x01	; 1
{
	uint16 j;
	for(j=0;j<=full_number;j++)
	{
		uint16 i;
		for(i=0;i<50;i++)
 792:	09 f0       	breq	.+2      	; 0x796 <S_SEG_TIMER+0x32e>
 794:	78 ce       	rjmp	.-784    	; 0x486 <S_SEG_TIMER+0x1e>
}

void S_SEG_TIMER       (uint8 full_number)
{
	uint16 j;
	for(j=0;j<=full_number;j++)
 796:	9f ef       	ldi	r25, 0xFF	; 255
 798:	c9 1a       	sub	r12, r25
 79a:	d9 0a       	sbc	r13, r25
 79c:	ac 14       	cp	r10, r12
 79e:	bd 04       	cpc	r11, r13
 7a0:	f8 f0       	brcs	.+62     	; 0x7e0 <S_SEG_TIMER+0x378>
 7a2:	96 01       	movw	r18, r12
 7a4:	ad ec       	ldi	r26, 0xCD	; 205
 7a6:	bc ec       	ldi	r27, 0xCC	; 204
 7a8:	0e 94 df 05 	call	0xbbe	; 0xbbe <__umulhisi3>
 7ac:	96 95       	lsr	r25
 7ae:	87 95       	ror	r24
 7b0:	96 95       	lsr	r25
 7b2:	87 95       	ror	r24
 7b4:	96 95       	lsr	r25
 7b6:	87 95       	ror	r24
 7b8:	7c 01       	movw	r14, r24
 7ba:	ff 24       	eor	r15, r15
 7bc:	9c 01       	movw	r18, r24
 7be:	22 0f       	add	r18, r18
 7c0:	33 1f       	adc	r19, r19
 7c2:	88 0f       	add	r24, r24
 7c4:	99 1f       	adc	r25, r25
 7c6:	88 0f       	add	r24, r24
 7c8:	99 1f       	adc	r25, r25
 7ca:	88 0f       	add	r24, r24
 7cc:	99 1f       	adc	r25, r25
 7ce:	82 0f       	add	r24, r18
 7d0:	93 1f       	adc	r25, r19
 7d2:	86 01       	movw	r16, r12
 7d4:	08 1b       	sub	r16, r24
 7d6:	19 0b       	sbc	r17, r25
 7d8:	11 27       	eor	r17, r17
	{
		uint16 i;
		for(i=0;i<50;i++)
		{
			uint8 l_part = (j / 10);
			uint8 r_part = (j % 10);
 7da:	c2 e3       	ldi	r28, 0x32	; 50
 7dc:	d0 e0       	ldi	r29, 0x00	; 0
 7de:	53 ce       	rjmp	.-858    	; 0x486 <S_SEG_TIMER+0x1e>
			}
			_delay_ms(10);
			PIN_WRITE(S_SEG_EN_2_PIN,LOW);
		}
	}
}
 7e0:	df 91       	pop	r29
 7e2:	cf 91       	pop	r28
 7e4:	1f 91       	pop	r17
 7e6:	0f 91       	pop	r16
 7e8:	ff 90       	pop	r15
 7ea:	ef 90       	pop	r14
 7ec:	df 90       	pop	r13
 7ee:	cf 90       	pop	r12
 7f0:	bf 90       	pop	r11
 7f2:	af 90       	pop	r10
 7f4:	08 95       	ret

000007f6 <PIN_MODE>:
 7f6:	9d ec       	ldi	r25, 0xCD	; 205
 7f8:	89 9f       	mul	r24, r25
 7fa:	91 2d       	mov	r25, r1
 7fc:	11 24       	eor	r1, r1
 7fe:	96 95       	lsr	r25
 800:	96 95       	lsr	r25
 802:	96 95       	lsr	r25
 804:	66 23       	and	r22, r22
 806:	09 f4       	brne	.+2      	; 0x80a <__DATA_REGION_LENGTH__+0xa>
 808:	72 c0       	rjmp	.+228    	; 0x8ee <__stack+0x8f>
 80a:	61 30       	cpi	r22, 0x01	; 1
 80c:	09 f0       	breq	.+2      	; 0x810 <__DATA_REGION_LENGTH__+0x10>
 80e:	e1 c0       	rjmp	.+450    	; 0x9d2 <__stack+0x173>
 810:	92 30       	cpi	r25, 0x02	; 2
 812:	21 f1       	breq	.+72     	; 0x85c <__DATA_REGION_LENGTH__+0x5c>
 814:	18 f4       	brcc	.+6      	; 0x81c <__DATA_REGION_LENGTH__+0x1c>
 816:	91 30       	cpi	r25, 0x01	; 1
 818:	39 f0       	breq	.+14     	; 0x828 <__DATA_REGION_LENGTH__+0x28>
 81a:	08 95       	ret
 81c:	93 30       	cpi	r25, 0x03	; 3
 81e:	c1 f1       	breq	.+112    	; 0x890 <__stack+0x31>
 820:	94 30       	cpi	r25, 0x04	; 4
 822:	09 f4       	brne	.+2      	; 0x826 <__DATA_REGION_LENGTH__+0x26>
 824:	4c c0       	rjmp	.+152    	; 0x8be <__stack+0x5f>
 826:	08 95       	ret
 828:	47 b3       	in	r20, 0x17	; 23
 82a:	9d ec       	ldi	r25, 0xCD	; 205
 82c:	89 9f       	mul	r24, r25
 82e:	91 2d       	mov	r25, r1
 830:	11 24       	eor	r1, r1
 832:	96 95       	lsr	r25
 834:	96 95       	lsr	r25
 836:	96 95       	lsr	r25
 838:	99 0f       	add	r25, r25
 83a:	29 2f       	mov	r18, r25
 83c:	22 0f       	add	r18, r18
 83e:	22 0f       	add	r18, r18
 840:	92 0f       	add	r25, r18
 842:	89 1b       	sub	r24, r25
 844:	21 e0       	ldi	r18, 0x01	; 1
 846:	30 e0       	ldi	r19, 0x00	; 0
 848:	b9 01       	movw	r22, r18
 84a:	02 c0       	rjmp	.+4      	; 0x850 <__DATA_REGION_LENGTH__+0x50>
 84c:	66 0f       	add	r22, r22
 84e:	77 1f       	adc	r23, r23
 850:	8a 95       	dec	r24
 852:	e2 f7       	brpl	.-8      	; 0x84c <__DATA_REGION_LENGTH__+0x4c>
 854:	cb 01       	movw	r24, r22
 856:	84 2b       	or	r24, r20
 858:	87 bb       	out	0x17, r24	; 23
 85a:	08 95       	ret
 85c:	41 b3       	in	r20, 0x11	; 17
 85e:	9d ec       	ldi	r25, 0xCD	; 205
 860:	89 9f       	mul	r24, r25
 862:	91 2d       	mov	r25, r1
 864:	11 24       	eor	r1, r1
 866:	92 95       	swap	r25
 868:	9f 70       	andi	r25, 0x0F	; 15
 86a:	99 0f       	add	r25, r25
 86c:	99 0f       	add	r25, r25
 86e:	29 2f       	mov	r18, r25
 870:	22 0f       	add	r18, r18
 872:	22 0f       	add	r18, r18
 874:	92 0f       	add	r25, r18
 876:	89 1b       	sub	r24, r25
 878:	21 e0       	ldi	r18, 0x01	; 1
 87a:	30 e0       	ldi	r19, 0x00	; 0
 87c:	b9 01       	movw	r22, r18
 87e:	02 c0       	rjmp	.+4      	; 0x884 <__stack+0x25>
 880:	66 0f       	add	r22, r22
 882:	77 1f       	adc	r23, r23
 884:	8a 95       	dec	r24
 886:	e2 f7       	brpl	.-8      	; 0x880 <__stack+0x21>
 888:	cb 01       	movw	r24, r22
 88a:	84 2b       	or	r24, r20
 88c:	81 bb       	out	0x11, r24	; 17
 88e:	08 95       	ret
 890:	44 b3       	in	r20, 0x14	; 20
 892:	99 e8       	ldi	r25, 0x89	; 137
 894:	89 9f       	mul	r24, r25
 896:	91 2d       	mov	r25, r1
 898:	11 24       	eor	r1, r1
 89a:	92 95       	swap	r25
 89c:	9f 70       	andi	r25, 0x0F	; 15
 89e:	7e e1       	ldi	r23, 0x1E	; 30
 8a0:	97 9f       	mul	r25, r23
 8a2:	80 19       	sub	r24, r0
 8a4:	11 24       	eor	r1, r1
 8a6:	21 e0       	ldi	r18, 0x01	; 1
 8a8:	30 e0       	ldi	r19, 0x00	; 0
 8aa:	b9 01       	movw	r22, r18
 8ac:	02 c0       	rjmp	.+4      	; 0x8b2 <__stack+0x53>
 8ae:	66 0f       	add	r22, r22
 8b0:	77 1f       	adc	r23, r23
 8b2:	8a 95       	dec	r24
 8b4:	e2 f7       	brpl	.-8      	; 0x8ae <__stack+0x4f>
 8b6:	cb 01       	movw	r24, r22
 8b8:	84 2b       	or	r24, r20
 8ba:	84 bb       	out	0x14, r24	; 20
 8bc:	08 95       	ret
 8be:	4a b3       	in	r20, 0x1a	; 26
 8c0:	9d ec       	ldi	r25, 0xCD	; 205
 8c2:	89 9f       	mul	r24, r25
 8c4:	91 2d       	mov	r25, r1
 8c6:	11 24       	eor	r1, r1
 8c8:	92 95       	swap	r25
 8ca:	96 95       	lsr	r25
 8cc:	97 70       	andi	r25, 0x07	; 7
 8ce:	78 e2       	ldi	r23, 0x28	; 40
 8d0:	97 9f       	mul	r25, r23
 8d2:	80 19       	sub	r24, r0
 8d4:	11 24       	eor	r1, r1
 8d6:	21 e0       	ldi	r18, 0x01	; 1
 8d8:	30 e0       	ldi	r19, 0x00	; 0
 8da:	b9 01       	movw	r22, r18
 8dc:	02 c0       	rjmp	.+4      	; 0x8e2 <__stack+0x83>
 8de:	66 0f       	add	r22, r22
 8e0:	77 1f       	adc	r23, r23
 8e2:	8a 95       	dec	r24
 8e4:	e2 f7       	brpl	.-8      	; 0x8de <__stack+0x7f>
 8e6:	cb 01       	movw	r24, r22
 8e8:	84 2b       	or	r24, r20
 8ea:	8a bb       	out	0x1a, r24	; 26
 8ec:	08 95       	ret
 8ee:	92 30       	cpi	r25, 0x02	; 2
 8f0:	29 f1       	breq	.+74     	; 0x93c <__stack+0xdd>
 8f2:	18 f4       	brcc	.+6      	; 0x8fa <__stack+0x9b>
 8f4:	91 30       	cpi	r25, 0x01	; 1
 8f6:	39 f0       	breq	.+14     	; 0x906 <__stack+0xa7>
 8f8:	08 95       	ret
 8fa:	93 30       	cpi	r25, 0x03	; 3
 8fc:	d1 f1       	breq	.+116    	; 0x972 <__stack+0x113>
 8fe:	94 30       	cpi	r25, 0x04	; 4
 900:	09 f4       	brne	.+2      	; 0x904 <__stack+0xa5>
 902:	4f c0       	rjmp	.+158    	; 0x9a2 <__stack+0x143>
 904:	08 95       	ret
 906:	47 b3       	in	r20, 0x17	; 23
 908:	9d ec       	ldi	r25, 0xCD	; 205
 90a:	89 9f       	mul	r24, r25
 90c:	91 2d       	mov	r25, r1
 90e:	11 24       	eor	r1, r1
 910:	96 95       	lsr	r25
 912:	96 95       	lsr	r25
 914:	96 95       	lsr	r25
 916:	99 0f       	add	r25, r25
 918:	29 2f       	mov	r18, r25
 91a:	22 0f       	add	r18, r18
 91c:	22 0f       	add	r18, r18
 91e:	92 0f       	add	r25, r18
 920:	89 1b       	sub	r24, r25
 922:	21 e0       	ldi	r18, 0x01	; 1
 924:	30 e0       	ldi	r19, 0x00	; 0
 926:	b9 01       	movw	r22, r18
 928:	02 c0       	rjmp	.+4      	; 0x92e <__stack+0xcf>
 92a:	66 0f       	add	r22, r22
 92c:	77 1f       	adc	r23, r23
 92e:	8a 95       	dec	r24
 930:	e2 f7       	brpl	.-8      	; 0x92a <__stack+0xcb>
 932:	cb 01       	movw	r24, r22
 934:	80 95       	com	r24
 936:	84 23       	and	r24, r20
 938:	87 bb       	out	0x17, r24	; 23
 93a:	08 95       	ret
 93c:	41 b3       	in	r20, 0x11	; 17
 93e:	9d ec       	ldi	r25, 0xCD	; 205
 940:	89 9f       	mul	r24, r25
 942:	91 2d       	mov	r25, r1
 944:	11 24       	eor	r1, r1
 946:	92 95       	swap	r25
 948:	9f 70       	andi	r25, 0x0F	; 15
 94a:	99 0f       	add	r25, r25
 94c:	99 0f       	add	r25, r25
 94e:	29 2f       	mov	r18, r25
 950:	22 0f       	add	r18, r18
 952:	22 0f       	add	r18, r18
 954:	92 0f       	add	r25, r18
 956:	89 1b       	sub	r24, r25
 958:	21 e0       	ldi	r18, 0x01	; 1
 95a:	30 e0       	ldi	r19, 0x00	; 0
 95c:	b9 01       	movw	r22, r18
 95e:	02 c0       	rjmp	.+4      	; 0x964 <__stack+0x105>
 960:	66 0f       	add	r22, r22
 962:	77 1f       	adc	r23, r23
 964:	8a 95       	dec	r24
 966:	e2 f7       	brpl	.-8      	; 0x960 <__stack+0x101>
 968:	cb 01       	movw	r24, r22
 96a:	80 95       	com	r24
 96c:	84 23       	and	r24, r20
 96e:	81 bb       	out	0x11, r24	; 17
 970:	08 95       	ret
 972:	44 b3       	in	r20, 0x14	; 20
 974:	99 e8       	ldi	r25, 0x89	; 137
 976:	89 9f       	mul	r24, r25
 978:	91 2d       	mov	r25, r1
 97a:	11 24       	eor	r1, r1
 97c:	92 95       	swap	r25
 97e:	9f 70       	andi	r25, 0x0F	; 15
 980:	7e e1       	ldi	r23, 0x1E	; 30
 982:	97 9f       	mul	r25, r23
 984:	80 19       	sub	r24, r0
 986:	11 24       	eor	r1, r1
 988:	21 e0       	ldi	r18, 0x01	; 1
 98a:	30 e0       	ldi	r19, 0x00	; 0
 98c:	b9 01       	movw	r22, r18
 98e:	02 c0       	rjmp	.+4      	; 0x994 <__stack+0x135>
 990:	66 0f       	add	r22, r22
 992:	77 1f       	adc	r23, r23
 994:	8a 95       	dec	r24
 996:	e2 f7       	brpl	.-8      	; 0x990 <__stack+0x131>
 998:	cb 01       	movw	r24, r22
 99a:	80 95       	com	r24
 99c:	84 23       	and	r24, r20
 99e:	84 bb       	out	0x14, r24	; 20
 9a0:	08 95       	ret
 9a2:	4a b3       	in	r20, 0x1a	; 26
 9a4:	9d ec       	ldi	r25, 0xCD	; 205
 9a6:	89 9f       	mul	r24, r25
 9a8:	91 2d       	mov	r25, r1
 9aa:	11 24       	eor	r1, r1
 9ac:	92 95       	swap	r25
 9ae:	96 95       	lsr	r25
 9b0:	97 70       	andi	r25, 0x07	; 7
 9b2:	78 e2       	ldi	r23, 0x28	; 40
 9b4:	97 9f       	mul	r25, r23
 9b6:	80 19       	sub	r24, r0
 9b8:	11 24       	eor	r1, r1
 9ba:	21 e0       	ldi	r18, 0x01	; 1
 9bc:	30 e0       	ldi	r19, 0x00	; 0
 9be:	b9 01       	movw	r22, r18
 9c0:	02 c0       	rjmp	.+4      	; 0x9c6 <__stack+0x167>
 9c2:	66 0f       	add	r22, r22
 9c4:	77 1f       	adc	r23, r23
 9c6:	8a 95       	dec	r24
 9c8:	e2 f7       	brpl	.-8      	; 0x9c2 <__stack+0x163>
 9ca:	cb 01       	movw	r24, r22
 9cc:	80 95       	com	r24
 9ce:	84 23       	and	r24, r20
 9d0:	8a bb       	out	0x1a, r24	; 26
 9d2:	08 95       	ret

000009d4 <PIN_WRITE>:
 9d4:	9d ec       	ldi	r25, 0xCD	; 205
 9d6:	89 9f       	mul	r24, r25
 9d8:	91 2d       	mov	r25, r1
 9da:	11 24       	eor	r1, r1
 9dc:	96 95       	lsr	r25
 9de:	96 95       	lsr	r25
 9e0:	96 95       	lsr	r25
 9e2:	66 23       	and	r22, r22
 9e4:	09 f4       	brne	.+2      	; 0x9e8 <PIN_WRITE+0x14>
 9e6:	72 c0       	rjmp	.+228    	; 0xacc <PIN_WRITE+0xf8>
 9e8:	61 30       	cpi	r22, 0x01	; 1
 9ea:	09 f0       	breq	.+2      	; 0x9ee <PIN_WRITE+0x1a>
 9ec:	e1 c0       	rjmp	.+450    	; 0xbb0 <PIN_WRITE+0x1dc>
 9ee:	92 30       	cpi	r25, 0x02	; 2
 9f0:	21 f1       	breq	.+72     	; 0xa3a <PIN_WRITE+0x66>
 9f2:	18 f4       	brcc	.+6      	; 0x9fa <PIN_WRITE+0x26>
 9f4:	91 30       	cpi	r25, 0x01	; 1
 9f6:	39 f0       	breq	.+14     	; 0xa06 <PIN_WRITE+0x32>
 9f8:	08 95       	ret
 9fa:	93 30       	cpi	r25, 0x03	; 3
 9fc:	c1 f1       	breq	.+112    	; 0xa6e <PIN_WRITE+0x9a>
 9fe:	94 30       	cpi	r25, 0x04	; 4
 a00:	09 f4       	brne	.+2      	; 0xa04 <PIN_WRITE+0x30>
 a02:	4c c0       	rjmp	.+152    	; 0xa9c <PIN_WRITE+0xc8>
 a04:	08 95       	ret
 a06:	48 b3       	in	r20, 0x18	; 24
 a08:	9d ec       	ldi	r25, 0xCD	; 205
 a0a:	89 9f       	mul	r24, r25
 a0c:	91 2d       	mov	r25, r1
 a0e:	11 24       	eor	r1, r1
 a10:	96 95       	lsr	r25
 a12:	96 95       	lsr	r25
 a14:	96 95       	lsr	r25
 a16:	99 0f       	add	r25, r25
 a18:	29 2f       	mov	r18, r25
 a1a:	22 0f       	add	r18, r18
 a1c:	22 0f       	add	r18, r18
 a1e:	92 0f       	add	r25, r18
 a20:	89 1b       	sub	r24, r25
 a22:	21 e0       	ldi	r18, 0x01	; 1
 a24:	30 e0       	ldi	r19, 0x00	; 0
 a26:	b9 01       	movw	r22, r18
 a28:	02 c0       	rjmp	.+4      	; 0xa2e <PIN_WRITE+0x5a>
 a2a:	66 0f       	add	r22, r22
 a2c:	77 1f       	adc	r23, r23
 a2e:	8a 95       	dec	r24
 a30:	e2 f7       	brpl	.-8      	; 0xa2a <PIN_WRITE+0x56>
 a32:	cb 01       	movw	r24, r22
 a34:	84 2b       	or	r24, r20
 a36:	88 bb       	out	0x18, r24	; 24
 a38:	08 95       	ret
 a3a:	42 b3       	in	r20, 0x12	; 18
 a3c:	9d ec       	ldi	r25, 0xCD	; 205
 a3e:	89 9f       	mul	r24, r25
 a40:	91 2d       	mov	r25, r1
 a42:	11 24       	eor	r1, r1
 a44:	92 95       	swap	r25
 a46:	9f 70       	andi	r25, 0x0F	; 15
 a48:	99 0f       	add	r25, r25
 a4a:	99 0f       	add	r25, r25
 a4c:	29 2f       	mov	r18, r25
 a4e:	22 0f       	add	r18, r18
 a50:	22 0f       	add	r18, r18
 a52:	92 0f       	add	r25, r18
 a54:	89 1b       	sub	r24, r25
 a56:	21 e0       	ldi	r18, 0x01	; 1
 a58:	30 e0       	ldi	r19, 0x00	; 0
 a5a:	b9 01       	movw	r22, r18
 a5c:	02 c0       	rjmp	.+4      	; 0xa62 <PIN_WRITE+0x8e>
 a5e:	66 0f       	add	r22, r22
 a60:	77 1f       	adc	r23, r23
 a62:	8a 95       	dec	r24
 a64:	e2 f7       	brpl	.-8      	; 0xa5e <PIN_WRITE+0x8a>
 a66:	cb 01       	movw	r24, r22
 a68:	84 2b       	or	r24, r20
 a6a:	82 bb       	out	0x12, r24	; 18
 a6c:	08 95       	ret
 a6e:	45 b3       	in	r20, 0x15	; 21
 a70:	99 e8       	ldi	r25, 0x89	; 137
 a72:	89 9f       	mul	r24, r25
 a74:	91 2d       	mov	r25, r1
 a76:	11 24       	eor	r1, r1
 a78:	92 95       	swap	r25
 a7a:	9f 70       	andi	r25, 0x0F	; 15
 a7c:	7e e1       	ldi	r23, 0x1E	; 30
 a7e:	97 9f       	mul	r25, r23
 a80:	80 19       	sub	r24, r0
 a82:	11 24       	eor	r1, r1
 a84:	21 e0       	ldi	r18, 0x01	; 1
 a86:	30 e0       	ldi	r19, 0x00	; 0
 a88:	b9 01       	movw	r22, r18
 a8a:	02 c0       	rjmp	.+4      	; 0xa90 <PIN_WRITE+0xbc>
 a8c:	66 0f       	add	r22, r22
 a8e:	77 1f       	adc	r23, r23
 a90:	8a 95       	dec	r24
 a92:	e2 f7       	brpl	.-8      	; 0xa8c <PIN_WRITE+0xb8>
 a94:	cb 01       	movw	r24, r22
 a96:	84 2b       	or	r24, r20
 a98:	85 bb       	out	0x15, r24	; 21
 a9a:	08 95       	ret
 a9c:	4b b3       	in	r20, 0x1b	; 27
 a9e:	9d ec       	ldi	r25, 0xCD	; 205
 aa0:	89 9f       	mul	r24, r25
 aa2:	91 2d       	mov	r25, r1
 aa4:	11 24       	eor	r1, r1
 aa6:	92 95       	swap	r25
 aa8:	96 95       	lsr	r25
 aaa:	97 70       	andi	r25, 0x07	; 7
 aac:	78 e2       	ldi	r23, 0x28	; 40
 aae:	97 9f       	mul	r25, r23
 ab0:	80 19       	sub	r24, r0
 ab2:	11 24       	eor	r1, r1
 ab4:	21 e0       	ldi	r18, 0x01	; 1
 ab6:	30 e0       	ldi	r19, 0x00	; 0
 ab8:	b9 01       	movw	r22, r18
 aba:	02 c0       	rjmp	.+4      	; 0xac0 <PIN_WRITE+0xec>
 abc:	66 0f       	add	r22, r22
 abe:	77 1f       	adc	r23, r23
 ac0:	8a 95       	dec	r24
 ac2:	e2 f7       	brpl	.-8      	; 0xabc <PIN_WRITE+0xe8>
 ac4:	cb 01       	movw	r24, r22
 ac6:	84 2b       	or	r24, r20
 ac8:	8b bb       	out	0x1b, r24	; 27
 aca:	08 95       	ret
 acc:	92 30       	cpi	r25, 0x02	; 2
 ace:	29 f1       	breq	.+74     	; 0xb1a <PIN_WRITE+0x146>
 ad0:	18 f4       	brcc	.+6      	; 0xad8 <PIN_WRITE+0x104>
 ad2:	91 30       	cpi	r25, 0x01	; 1
 ad4:	39 f0       	breq	.+14     	; 0xae4 <PIN_WRITE+0x110>
 ad6:	08 95       	ret
 ad8:	93 30       	cpi	r25, 0x03	; 3
 ada:	d1 f1       	breq	.+116    	; 0xb50 <PIN_WRITE+0x17c>
 adc:	94 30       	cpi	r25, 0x04	; 4
 ade:	09 f4       	brne	.+2      	; 0xae2 <PIN_WRITE+0x10e>
 ae0:	4f c0       	rjmp	.+158    	; 0xb80 <PIN_WRITE+0x1ac>
 ae2:	08 95       	ret
 ae4:	48 b3       	in	r20, 0x18	; 24
 ae6:	9d ec       	ldi	r25, 0xCD	; 205
 ae8:	89 9f       	mul	r24, r25
 aea:	91 2d       	mov	r25, r1
 aec:	11 24       	eor	r1, r1
 aee:	96 95       	lsr	r25
 af0:	96 95       	lsr	r25
 af2:	96 95       	lsr	r25
 af4:	99 0f       	add	r25, r25
 af6:	29 2f       	mov	r18, r25
 af8:	22 0f       	add	r18, r18
 afa:	22 0f       	add	r18, r18
 afc:	92 0f       	add	r25, r18
 afe:	89 1b       	sub	r24, r25
 b00:	21 e0       	ldi	r18, 0x01	; 1
 b02:	30 e0       	ldi	r19, 0x00	; 0
 b04:	b9 01       	movw	r22, r18
 b06:	02 c0       	rjmp	.+4      	; 0xb0c <PIN_WRITE+0x138>
 b08:	66 0f       	add	r22, r22
 b0a:	77 1f       	adc	r23, r23
 b0c:	8a 95       	dec	r24
 b0e:	e2 f7       	brpl	.-8      	; 0xb08 <PIN_WRITE+0x134>
 b10:	cb 01       	movw	r24, r22
 b12:	80 95       	com	r24
 b14:	84 23       	and	r24, r20
 b16:	88 bb       	out	0x18, r24	; 24
 b18:	08 95       	ret
 b1a:	42 b3       	in	r20, 0x12	; 18
 b1c:	9d ec       	ldi	r25, 0xCD	; 205
 b1e:	89 9f       	mul	r24, r25
 b20:	91 2d       	mov	r25, r1
 b22:	11 24       	eor	r1, r1
 b24:	92 95       	swap	r25
 b26:	9f 70       	andi	r25, 0x0F	; 15
 b28:	99 0f       	add	r25, r25
 b2a:	99 0f       	add	r25, r25
 b2c:	29 2f       	mov	r18, r25
 b2e:	22 0f       	add	r18, r18
 b30:	22 0f       	add	r18, r18
 b32:	92 0f       	add	r25, r18
 b34:	89 1b       	sub	r24, r25
 b36:	21 e0       	ldi	r18, 0x01	; 1
 b38:	30 e0       	ldi	r19, 0x00	; 0
 b3a:	b9 01       	movw	r22, r18
 b3c:	02 c0       	rjmp	.+4      	; 0xb42 <PIN_WRITE+0x16e>
 b3e:	66 0f       	add	r22, r22
 b40:	77 1f       	adc	r23, r23
 b42:	8a 95       	dec	r24
 b44:	e2 f7       	brpl	.-8      	; 0xb3e <PIN_WRITE+0x16a>
 b46:	cb 01       	movw	r24, r22
 b48:	80 95       	com	r24
 b4a:	84 23       	and	r24, r20
 b4c:	82 bb       	out	0x12, r24	; 18
 b4e:	08 95       	ret
 b50:	45 b3       	in	r20, 0x15	; 21
 b52:	99 e8       	ldi	r25, 0x89	; 137
 b54:	89 9f       	mul	r24, r25
 b56:	91 2d       	mov	r25, r1
 b58:	11 24       	eor	r1, r1
 b5a:	92 95       	swap	r25
 b5c:	9f 70       	andi	r25, 0x0F	; 15
 b5e:	7e e1       	ldi	r23, 0x1E	; 30
 b60:	97 9f       	mul	r25, r23
 b62:	80 19       	sub	r24, r0
 b64:	11 24       	eor	r1, r1
 b66:	21 e0       	ldi	r18, 0x01	; 1
 b68:	30 e0       	ldi	r19, 0x00	; 0
 b6a:	b9 01       	movw	r22, r18
 b6c:	02 c0       	rjmp	.+4      	; 0xb72 <PIN_WRITE+0x19e>
 b6e:	66 0f       	add	r22, r22
 b70:	77 1f       	adc	r23, r23
 b72:	8a 95       	dec	r24
 b74:	e2 f7       	brpl	.-8      	; 0xb6e <PIN_WRITE+0x19a>
 b76:	cb 01       	movw	r24, r22
 b78:	80 95       	com	r24
 b7a:	84 23       	and	r24, r20
 b7c:	85 bb       	out	0x15, r24	; 21
 b7e:	08 95       	ret
 b80:	4b b3       	in	r20, 0x1b	; 27
 b82:	9d ec       	ldi	r25, 0xCD	; 205
 b84:	89 9f       	mul	r24, r25
 b86:	91 2d       	mov	r25, r1
 b88:	11 24       	eor	r1, r1
 b8a:	92 95       	swap	r25
 b8c:	96 95       	lsr	r25
 b8e:	97 70       	andi	r25, 0x07	; 7
 b90:	78 e2       	ldi	r23, 0x28	; 40
 b92:	97 9f       	mul	r25, r23
 b94:	80 19       	sub	r24, r0
 b96:	11 24       	eor	r1, r1
 b98:	21 e0       	ldi	r18, 0x01	; 1
 b9a:	30 e0       	ldi	r19, 0x00	; 0
 b9c:	b9 01       	movw	r22, r18
 b9e:	02 c0       	rjmp	.+4      	; 0xba4 <PIN_WRITE+0x1d0>
 ba0:	66 0f       	add	r22, r22
 ba2:	77 1f       	adc	r23, r23
 ba4:	8a 95       	dec	r24
 ba6:	e2 f7       	brpl	.-8      	; 0xba0 <PIN_WRITE+0x1cc>
 ba8:	cb 01       	movw	r24, r22
 baa:	80 95       	com	r24
 bac:	84 23       	and	r24, r20
 bae:	8b bb       	out	0x1b, r24	; 27
 bb0:	08 95       	ret

00000bb2 <__tablejump2__>:
 bb2:	ee 0f       	add	r30, r30
 bb4:	ff 1f       	adc	r31, r31
 bb6:	05 90       	lpm	r0, Z+
 bb8:	f4 91       	lpm	r31, Z
 bba:	e0 2d       	mov	r30, r0
 bbc:	09 94       	ijmp

00000bbe <__umulhisi3>:
 bbe:	a2 9f       	mul	r26, r18
 bc0:	b0 01       	movw	r22, r0
 bc2:	b3 9f       	mul	r27, r19
 bc4:	c0 01       	movw	r24, r0
 bc6:	a3 9f       	mul	r26, r19
 bc8:	70 0d       	add	r23, r0
 bca:	81 1d       	adc	r24, r1
 bcc:	11 24       	eor	r1, r1
 bce:	91 1d       	adc	r25, r1
 bd0:	b2 9f       	mul	r27, r18
 bd2:	70 0d       	add	r23, r0
 bd4:	81 1d       	adc	r24, r1
 bd6:	11 24       	eor	r1, r1
 bd8:	91 1d       	adc	r25, r1
 bda:	08 95       	ret

00000bdc <_exit>:
 bdc:	f8 94       	cli

00000bde <__stop_program>:
 bde:	ff cf       	rjmp	.-2      	; 0xbde <__stop_program>
